target datalayout = "e-m:e-p270:32:32-p271:32:32-p272:64:64-i64:64-i128:128-f80:128-n8:16:32:64-S128"
target triple = "x86_64-pc-linux-gnu"

%struct.ec_group_st = type { ptr, ptr, %struct.bignum_st, %struct.bignum_st, i32, ptr, %struct.bignum_st, %struct.bignum_st, %struct.bignum_st, i32, ptr, %struct.bignum_st }
%struct.bignum_st = type { ptr, i32, i32, i32, i32 }

@.str = private unnamed_addr constant [129 x i8] c"generated/home/dtcxzyw/WorkSpace/Projects/compilers/llvm-opt-benchmark/bench/libquic/libquic/boringssl/crypto/ec/ec_montgomery.c\00", align 1

; Function Attrs: nounwind uwtable
define hidden i32 @ec_GFp_mont_field_mul(ptr noundef %0, ptr noundef %1, ptr noundef %2, ptr noundef %3, ptr noundef %4) #0 {
  %6 = alloca i32, align 4
  %7 = alloca ptr, align 8
  %8 = alloca ptr, align 8
  %9 = alloca ptr, align 8
  %10 = alloca ptr, align 8
  %11 = alloca ptr, align 8
  store ptr %0, ptr %7, align 8, !tbaa !6
  store ptr %1, ptr %8, align 8, !tbaa !20
  store ptr %2, ptr %9, align 8, !tbaa !20
  store ptr %3, ptr %10, align 8, !tbaa !20
  store ptr %4, ptr %11, align 8, !tbaa !22
  %12 = load ptr, ptr %7, align 8, !tbaa !6
  %13 = getelementptr inbounds nuw %struct.ec_group_st, ptr %12, i32 0, i32 10
  %14 = load ptr, ptr %13, align 8, !tbaa !13
  %15 = icmp eq ptr %14, null
  br i1 %15, label %16, label %17

16:                                               ; preds = %5
  call void @ERR_put_error(i32 noundef 15, i32 noundef 0, i32 noundef 117, ptr noundef @.str, i32 noundef 161)
  store i32 0, ptr %6, align 4
  br label %26

17:                                               ; preds = %5
  %18 = load ptr, ptr %8, align 8, !tbaa !20
  %19 = load ptr, ptr %9, align 8, !tbaa !20
  %20 = load ptr, ptr %10, align 8, !tbaa !20
  %21 = load ptr, ptr %7, align 8, !tbaa !6
  %22 = getelementptr inbounds nuw %struct.ec_group_st, ptr %21, i32 0, i32 10
  %23 = load ptr, ptr %22, align 8, !tbaa !13
  %24 = load ptr, ptr %11, align 8, !tbaa !22
  %25 = call i32 @BN_mod_mul_montgomery(ptr noundef %18, ptr noundef %19, ptr noundef %20, ptr noundef %23, ptr noundef %24)
  store i32 %25, ptr %6, align 4
  br label %26

26:                                               ; preds = %17, %16
  %27 = load i32, ptr %6, align 4
  ret i32 %27
}