; Function Attrs: nounwind uwtable
define hidden i32 @ec_GFp_mont_field_mul(ptr noundef readonly captures(none) %0, ptr noundef %1, ptr noundef %2, ptr noundef %3, ptr noundef %4) #0 {
  %6 = getelementptr inbounds nuw i8, ptr %0, i64 160
  %7 = load ptr, ptr %6, align 8, !tbaa !6
  %8 = icmp eq ptr %7, null
  br i1 %8, label %9, label %10

9:                                                ; preds = %5
  tail call void @ERR_put_error(i32 noundef 15, i32 noundef 0, i32 noundef 117, ptr noundef nonnull @.str, i32 noundef 161) #3
  br label %12

10:                                               ; preds = %5
  %11 = tail call i32 @BN_mod_mul_montgomery(ptr noundef %1, ptr noundef %2, ptr noundef %3, ptr noundef nonnull %7, ptr noundef %4) #3
  br label %12

12:                                               ; preds = %10, %9
  %.0 = phi i32 [ 0, %9 ], [ %11, %10 ]
  ret i32 %.0
}